target datalayout = "e-m:e-p270:32:32-p271:32:32-p272:64:64-i64:64-i128:128-f80:128-n8:16:32:64-S128"
target triple = "x86_64-pc-linux-gnu"

%"class.sat::literal" = type { i32 }
%"class.smt::b_justification" = type { ptr }
%"class.smt::conflict_resolution" = type <{ ptr, ptr, ptr, ptr, ptr, ptr, i32, [4 x i8], %class.svector, %class.ref_vector, i32, i32, %class.ptr_vector.1, i32, [4 x i8], %class.svector.3, %class.obj_pair_set, ptr, ptr, %class.svector.5, %class.obj_map, %class.obj_pair_map, %class.map, %class.ref_vector.15, %class.ref_vector.20, %class.obj_ref, %class.svector, %class.svector, %class.svector.25, %class.svector.25, %class.approx_set_tpl, [4 x i8] }>
%class.ref_vector = type { %class.ref_vector_core }
%class.ref_vector_core = type { %class.ref_manager_wrapper, %class.ptr_vector }
%class.ref_manager_wrapper = type { ptr }
%class.ptr_vector = type { %class.vector.0 }
%class.vector.0 = type { ptr }
%class.ptr_vector.1 = type { %class.vector.2 }
%class.vector.2 = type { ptr }
%class.svector.3 = type { %class.vector.4 }
%class.vector.4 = type { ptr }
%class.obj_pair_set = type { %class.chashtable }
%class.chashtable = type { ptr, i32, i32, i32, i32, i32, i32, i32, ptr, ptr, ptr }
%class.svector.5 = type { %class.vector.6 }
%class.vector.6 = type { ptr }
%class.obj_map = type { %class.core_hashtable }
%class.core_hashtable = type <{ ptr, i32, i32, i32, [4 x i8] }>
%class.obj_pair_map = type { %class.core_hashtable.7 }
%class.core_hashtable.7 = type <{ ptr, i32, i32, i32, [4 x i8] }>
%class.map = type { %class.table2map }
%class.table2map = type { %class.core_hashtable.11 }
%class.core_hashtable.11 = type <{ ptr, i32, i32, i32, [4 x i8] }>
%class.ref_vector.15 = type { %class.ref_vector_core.16 }
%class.ref_vector_core.16 = type { %class.ref_manager_wrapper.17, %class.ptr_vector.18 }
%class.ref_manager_wrapper.17 = type { ptr }
%class.ptr_vector.18 = type { %class.vector.19 }
%class.vector.19 = type { ptr }
%class.ref_vector.20 = type { %class.ref_vector_core.21 }
%class.ref_vector_core.21 = type { %class.ref_manager_wrapper.22, %class.ptr_vector.23 }
%class.ref_manager_wrapper.22 = type { ptr }
%class.ptr_vector.23 = type { %class.vector.24 }
%class.vector.24 = type { ptr }
%class.obj_ref = type { ptr, ptr }
%class.svector = type { %class.vector }
%class.vector = type { ptr }
%class.svector.25 = type { %class.vector.26 }
%class.vector.26 = type { ptr }
%class.approx_set_tpl = type { i32 }
%class.ast = type { i32, i32, i32, i32 }
%struct._key_data = type { %"class.sat::literal", ptr }

; Function Attrs: mustprogress nounwind uwtable
define linkonce_odr hidden void @_ZN3ast7inc_refEv(ptr noundef nonnull align 4 dereferenceable(16) %0) #4 comdat align 2 {
  %2 = alloca ptr, align 8
  store ptr %0, ptr %2, align 8, !tbaa !654
  %3 = load ptr, ptr %2, align 8
  %4 = getelementptr inbounds nuw %class.ast, ptr %3, i32 0, i32 2
  %5 = load i32, ptr %4, align 4, !tbaa !831
  %6 = add i32 %5, 1
  store i32 %6, ptr %4, align 4, !tbaa !831
  ret void
}

; Function Attrs: mustprogress uwtable
define linkonce_odr hidden void @_ZN11ast_manager7inc_refEP3ast(ptr noundef nonnull align 8 dereferenceable(976) %0, ptr noundef %1) #6 comdat align 2 {
  %3 = alloca ptr, align 8
  %4 = alloca ptr, align 8
  store ptr %0, ptr %3, align 8, !tbaa !30
  store ptr %1, ptr %4, align 8, !tbaa !654
  %5 = load ptr, ptr %4, align 8, !tbaa !654
  %6 = icmp ne ptr %5, null
  br i1 %6, label %7, label %9

7:                                                ; preds = %2
  %8 = load ptr, ptr %4, align 8, !tbaa !654
  call void @_ZN3ast7inc_refEv(ptr noundef nonnull align 4 dereferenceable(16) %8)
  br label %9

9:                                                ; preds = %7, %2
  ret void
}

; Function Attrs: mustprogress uwtable
define linkonce_odr hidden void @_ZN19ref_manager_wrapperI3ast11ast_managerE7inc_refEPS0_(ptr noundef nonnull align 8 dereferenceable(8) %0, ptr noundef %1) #6 comdat align 2 {
  %3 = alloca ptr, align 8
  %4 = alloca ptr, align 8
  store ptr %0, ptr %3, align 8, !tbaa !828
  store ptr %1, ptr %4, align 8, !tbaa !654
  %5 = load ptr, ptr %3, align 8
  %6 = getelementptr inbounds nuw %class.ref_manager_wrapper.22, ptr %5, i32 0, i32 0
  %7 = load ptr, ptr %6, align 8, !tbaa !830
  %8 = load ptr, ptr %4, align 8, !tbaa !654
  call void @_ZN11ast_manager7inc_refEP3ast(ptr noundef nonnull align 8 dereferenceable(976) %7, ptr noundef %8)
  ret void
}

; Function Attrs: mustprogress uwtable
define linkonce_odr hidden noundef nonnull align 8 dereferenceable(8) ptr @_ZN6vectorIP3astLb0EjE9push_backERKS1_(ptr noundef nonnull align 8 dereferenceable(8) %0, ptr noundef nonnull align 8 dereferenceable(8) %1) #6 comdat align 2 {
  %3 = alloca ptr, align 8
  %4 = alloca ptr, align 8
  store ptr %0, ptr %3, align 8, !tbaa !825
  store ptr %1, ptr %4, align 8, !tbaa !823
  %5 = load ptr, ptr %3, align 8
  %6 = getelementptr inbounds nuw %class.vector.24, ptr %5, i32 0, i32 0
  %7 = load ptr, ptr %6, align 8, !tbaa !827
  %8 = icmp eq ptr %7, null
  br i1 %8, label %19, label %9

9:                                                ; preds = %2
  %10 = getelementptr inbounds nuw %class.vector.24, ptr %5, i32 0, i32 0
  %11 = load ptr, ptr %10, align 8, !tbaa !827
  %12 = getelementptr inbounds i32, ptr %11, i64 -1
  %13 = load i32, ptr %12, align 4, !tbaa !8
  %14 = getelementptr inbounds nuw %class.vector.24, ptr %5, i32 0, i32 0
  %15 = load ptr, ptr %14, align 8, !tbaa !827
  %16 = getelementptr inbounds i32, ptr %15, i64 -2
  %17 = load i32, ptr %16, align 4, !tbaa !8
  %18 = icmp eq i32 %13, %17
  br i1 %18, label %19, label %20

19:                                               ; preds = %9, %2
  call void @_ZN6vectorIP3astLb0EjE13expand_vectorEv(ptr noundef nonnull align 8 dereferenceable(8) %5)
  br label %20

20:                                               ; preds = %19, %9
  %21 = getelementptr inbounds nuw %class.vector.24, ptr %5, i32 0, i32 0
  %22 = load ptr, ptr %21, align 8, !tbaa !827
  %23 = getelementptr inbounds nuw %class.vector.24, ptr %5, i32 0, i32 0
  %24 = load ptr, ptr %23, align 8, !tbaa !827
  %25 = getelementptr inbounds i32, ptr %24, i64 -1
  %26 = load i32, ptr %25, align 4, !tbaa !8
  %27 = zext i32 %26 to i64
  %28 = getelementptr inbounds nuw ptr, ptr %22, i64 %27
  %29 = load ptr, ptr %4, align 8, !tbaa !823
  %30 = load ptr, ptr %29, align 8, !tbaa !654
  store ptr %30, ptr %28, align 8, !tbaa !654
  %31 = getelementptr inbounds nuw %class.vector.24, ptr %5, i32 0, i32 0
  %32 = load ptr, ptr %31, align 8, !tbaa !827
  %33 = getelementptr inbounds i32, ptr %32, i64 -1
  %34 = load i32, ptr %33, align 4, !tbaa !8
  %35 = add i32 %34, 1
  store i32 %35, ptr %33, align 4, !tbaa !8
  ret ptr %5
}

; Function Attrs: mustprogress uwtable
define linkonce_odr hidden void @_ZN15ref_vector_coreI3ast19ref_manager_wrapperIS0_11ast_managerEE7inc_refEPS0_(ptr noundef nonnull align 8 dereferenceable(16) %0, ptr noundef %1) #6 comdat align 2 {
  %3 = alloca ptr, align 8
  %4 = alloca ptr, align 8
  store ptr %0, ptr %3, align 8, !tbaa !128
  store ptr %1, ptr %4, align 8, !tbaa !654
  %5 = load ptr, ptr %3, align 8
  %6 = load ptr, ptr %4, align 8, !tbaa !654
  call void @_ZN19ref_manager_wrapperI3ast11ast_managerE7inc_refEPS0_(ptr noundef nonnull align 8 dereferenceable(8) %5, ptr noundef %6)
  ret void
}

; Function Attrs: mustprogress uwtable
define linkonce_odr hidden noundef nonnull align 8 dereferenceable(16) ptr @_ZN15ref_vector_coreI3ast19ref_manager_wrapperIS0_11ast_managerEE9push_backEPS0_(ptr noundef nonnull align 8 dereferenceable(16) %0, ptr noundef %1) #6 comdat align 2 {
  %3 = alloca ptr, align 8
  %4 = alloca ptr, align 8
  store ptr %0, ptr %3, align 8, !tbaa !128
  store ptr %1, ptr %4, align 8, !tbaa !654
  %5 = load ptr, ptr %3, align 8
  %6 = load ptr, ptr %4, align 8, !tbaa !654
  call void @_ZN15ref_vector_coreI3ast19ref_manager_wrapperIS0_11ast_managerEE7inc_refEPS0_(ptr noundef nonnull align 8 dereferenceable(16) %5, ptr noundef %6)
  %7 = getelementptr inbounds nuw %class.ref_vector_core.21, ptr %5, i32 0, i32 1
  %8 = call noundef nonnull align 8 dereferenceable(8) ptr @_ZN6vectorIP3astLb0EjE9push_backERKS1_(ptr noundef nonnull align 8 dereferenceable(8) %7, ptr noundef nonnull align 8 dereferenceable(8) %4)
  ret ptr %5
}

; Function Attrs: mustprogress uwtable
define linkonce_odr hidden void @_ZN9table2mapI17default_map_entryIN3sat7literalEP3appE8obj_hashIS2_E10default_eqIS2_EE6insertERKS2_RKS4_(ptr noundef nonnull align 8 dereferenceable(24) %0, ptr noundef nonnull align 4 dereferenceable(4) %1, ptr noundef nonnull align 8 dereferenceable(8) %2) #6 comdat align 2 {
  %4 = alloca ptr, align 8
  %5 = alloca ptr, align 8
  %6 = alloca ptr, align 8
  %7 = alloca %struct._key_data, align 8
  store ptr %0, ptr %4, align 8, !tbaa !132
  store ptr %1, ptr %5, align 8, !tbaa !3
  store ptr %2, ptr %6, align 8, !tbaa !758
  %8 = load ptr, ptr %4, align 8
  %9 = getelementptr inbounds nuw %class.table2map, ptr %8, i32 0, i32 0
  call void @llvm.lifetime.start.p0(i64 16, ptr %7) #3
  %10 = getelementptr inbounds nuw %struct._key_data, ptr %7, i32 0, i32 0
  %11 = load ptr, ptr %5, align 8, !tbaa !3
  call void @llvm.memcpy.p0.p0.i64(ptr align 8 %10, ptr align 4 %11, i64 4, i1 false), !tbaa.struct !164
  %12 = getelementptr inbounds nuw %struct._key_data, ptr %7, i32 0, i32 1
  %13 = load ptr, ptr %6, align 8, !tbaa !758
  %14 = load ptr, ptr %13, align 8, !tbaa !165
  store ptr %14, ptr %12, align 8, !tbaa !782
  call void @_ZN14core_hashtableI17default_map_entryIN3sat7literalEP3appEN9table2mapIS5_8obj_hashIS2_E10default_eqIS2_EE15entry_hash_procENSB_13entry_eq_procEE6insertEO9_key_dataIS2_S4_E(ptr noundef nonnull align 8 dereferenceable(20) %9, ptr noundef nonnull align 8 dereferenceable(16) %7)
  call void @llvm.lifetime.end.p0(i64 16, ptr %7) #3
  ret void
}

; Function Attrs: mustprogress uwtable
define hidden void @_ZN3smt19conflict_resolution8mk_proofEN3sat7literalENS_15b_justificationE(ptr noundef nonnull align 8 dereferenceable(356) %0, i32 %1, ptr %2) #6 align 2 {
  %4 = alloca %"class.sat::literal", align 4
  %5 = alloca %"class.smt::b_justification", align 8
  %6 = alloca ptr, align 8
  %7 = alloca ptr, align 8
  %8 = alloca %"class.sat::literal", align 4
  %9 = alloca %"class.smt::b_justification", align 8
  %10 = getelementptr inbounds nuw %"class.sat::literal", ptr %4, i32 0, i32 0
  store i32 %1, ptr %10, align 4
  %11 = getelementptr inbounds nuw %"class.smt::b_justification", ptr %5, i32 0, i32 0
  store ptr %2, ptr %11, align 8
  store ptr %0, ptr %6, align 8, !tbaa !28
  %12 = load ptr, ptr %6, align 8
  call void @llvm.lifetime.start.p0(i64 8, ptr %7) #3
  call void @llvm.memcpy.p0.p0.i64(ptr align 4 %8, ptr align 4 %4, i64 4, i1 false), !tbaa.struct !164
  call void @llvm.memcpy.p0.p0.i64(ptr align 8 %9, ptr align 8 %5, i64 8, i1 false), !tbaa.struct !199
  %13 = getelementptr inbounds nuw %"class.sat::literal", ptr %8, i32 0, i32 0
  %14 = load i32, ptr %13, align 4
  %15 = getelementptr inbounds nuw %"class.smt::b_justification", ptr %9, i32 0, i32 0
  %16 = load ptr, ptr %15, align 8
  %17 = call noundef ptr @_ZN3smt19conflict_resolution9get_proofEN3sat7literalENS_15b_justificationE(ptr noundef nonnull align 8 dereferenceable(356) %12, i32 %14, ptr %16)
  store ptr %17, ptr %7, align 8, !tbaa !165
  %18 = getelementptr inbounds nuw %"class.smt::conflict_resolution", ptr %12, i32 0, i32 22
  call void @_ZN9table2mapI17default_map_entryIN3sat7literalEP3appE8obj_hashIS2_E10default_eqIS2_EE6insertERKS2_RKS4_(ptr noundef nonnull align 8 dereferenceable(24) %18, ptr noundef nonnull align 4 dereferenceable(4) %4, ptr noundef nonnull align 8 dereferenceable(8) %7)
  %19 = getelementptr inbounds nuw %"class.smt::conflict_resolution", ptr %12, i32 0, i32 24
  %20 = load ptr, ptr %7, align 8, !tbaa !165
  %21 = call noundef nonnull align 8 dereferenceable(16) ptr @_ZN15ref_vector_coreI3ast19ref_manager_wrapperIS0_11ast_managerEE9push_backEPS0_(ptr noundef nonnull align 8 dereferenceable(16) %19, ptr noundef %20)
  call void @llvm.lifetime.end.p0(i64 8, ptr %7) #3
  ret void
}