; Function Attrs: mustprogress uwtable
define hidden void @_ZN3smt19conflict_resolution8mk_proofEN3sat7literalENS_15b_justificationE(ptr noundef nonnull align 8 dereferenceable(356) %0, i32 %1, ptr %2) local_unnamed_addr #4 align 2 {
  %4 = alloca %struct._key_data, align 8
  %5 = tail call noundef ptr @_ZN3smt19conflict_resolution9get_proofEN3sat7literalENS_15b_justificationE(ptr noundef nonnull align 8 dereferenceable(356) %0, i32 %1, ptr %2)
  %6 = getelementptr inbounds nuw i8, ptr %0, i64 248
  call void @llvm.lifetime.start.p0(i64 16, ptr nonnull %4) #21
  store i32 %1, ptr %4, align 8, !tbaa !117
  %7 = getelementptr inbounds nuw i8, ptr %4, i64 8
  store ptr %5, ptr %7, align 8, !tbaa !712
  call void @_ZN14core_hashtableI17default_map_entryIN3sat7literalEP3appEN9table2mapIS5_8obj_hashIS2_E10default_eqIS2_EE15entry_hash_procENSB_13entry_eq_procEE6insertEO9_key_dataIS2_S4_E(ptr noundef nonnull align 8 dereferenceable(24) %6, ptr noundef nonnull align 8 dereferenceable(16) %4)
  call void @llvm.lifetime.end.p0(i64 16, ptr nonnull %4) #21
  %.not.i.i.i.i = icmp eq ptr %5, null
  br i1 %.not.i.i.i.i, label %_ZN15ref_vector_coreI3ast19ref_manager_wrapperIS0_11ast_managerEE7inc_refEPS0_.exit.i, label %8

8:                                                ; preds = %3
  %9 = getelementptr inbounds nuw i8, ptr %5, i64 8
  %10 = load i32, ptr %9, align 4, !tbaa !121
  %11 = add i32 %10, 1
  store i32 %11, ptr %9, align 4, !tbaa !121
  br label %_ZN15ref_vector_coreI3ast19ref_manager_wrapperIS0_11ast_managerEE7inc_refEPS0_.exit.i

_ZN15ref_vector_coreI3ast19ref_manager_wrapperIS0_11ast_managerEE7inc_refEPS0_.exit.i: ; preds = %8, %3
  %12 = getelementptr inbounds nuw i8, ptr %0, i64 296
  %13 = load ptr, ptr %12, align 8, !tbaa !705
  %14 = icmp eq ptr %13, null
  br i1 %14, label %21, label %15

15:                                               ; preds = %_ZN15ref_vector_coreI3ast19ref_manager_wrapperIS0_11ast_managerEE7inc_refEPS0_.exit.i
  %16 = getelementptr inbounds i8, ptr %13, i64 -4
  %17 = load i32, ptr %16, align 4, !tbaa !117
  %18 = getelementptr inbounds i8, ptr %13, i64 -8
  %19 = load i32, ptr %18, align 4, !tbaa !117
  %20 = icmp eq i32 %17, %19
  br i1 %20, label %21, label %_ZN15ref_vector_coreI3ast19ref_manager_wrapperIS0_11ast_managerEE9push_backEPS0_.exit

21:                                               ; preds = %15, %_ZN15ref_vector_coreI3ast19ref_manager_wrapperIS0_11ast_managerEE7inc_refEPS0_.exit.i
  call void @_ZN6vectorIP3astLb0EjE13expand_vectorEv(ptr noundef nonnull align 8 dereferenceable(8) %12)
  %.pre.i.i = load ptr, ptr %12, align 8, !tbaa !705
  %.phi.trans.insert.i.i = getelementptr inbounds i8, ptr %.pre.i.i, i64 -4
  %.pre2.i.i = load i32, ptr %.phi.trans.insert.i.i, align 4, !tbaa !117
  br label %_ZN15ref_vector_coreI3ast19ref_manager_wrapperIS0_11ast_managerEE9push_backEPS0_.exit

_ZN15ref_vector_coreI3ast19ref_manager_wrapperIS0_11ast_managerEE9push_backEPS0_.exit: ; preds = %15, %21
  %22 = phi i32 [ %.pre2.i.i, %21 ], [ %17, %15 ]
  %23 = phi ptr [ %.pre.i.i, %21 ], [ %13, %15 ]
  %24 = getelementptr inbounds i8, ptr %23, i64 -4
  %25 = zext i32 %22 to i64
  %26 = getelementptr inbounds nuw ptr, ptr %23, i64 %25
  store ptr %5, ptr %26, align 8, !tbaa !706
  %27 = add i32 %22, 1
  store i32 %27, ptr %24, align 4, !tbaa !117
  ret void
}